Certificate:
    Data:
        Version: 3 (0x2)
        Serial Number: 4097 (0x1001)
    Signature Algorithm: sha256WithRSAEncryption
        Issuer: C=CN, ST=Hubei, L=Wuhan, O=HUST, OU=CSE, CN=zhangzexin/emailAddress=fragrance@hust.edu.cn
        Validity
            Not Before: May 27 03:58:10 2021 GMT
            Not After : May 27 03:58:10 2022 GMT
        Subject: C=CN, ST=Hubei, O=HUST, OU=CSE, CN=client_1
        Subject Public Key Info:
            Public Key Algorithm: rsaEncryption
                Public-Key: (1024 bit)
                Modulus:
                    00:a2:20:27:72:1a:e4:8a:e3:7a:2a:84:70:aa:7c:
                    f3:6c:d4:ed:8c:d4:a1:60:66:f6:d6:e9:0e:aa:b6:
                    95:42:0c:39:97:09:8f:aa:e7:d9:3a:1a:54:50:94:
                    32:44:04:68:6a:bb:2d:98:90:01:07:d6:6a:1b:07:
                    d0:fd:c1:4e:53:a7:e6:6c:4e:a2:6c:e0:66:0a:4d:
                    83:8c:52:dc:de:75:30:18:24:c5:b0:f7:55:ab:b6:
                    0d:47:bb:28:b9:70:49:b2:6e:ec:a2:5e:4f:e8:9d:
                    61:b6:6e:31:ec:36:24:35:c5:79:20:a9:cc:16:58:
                    d0:77:3f:1b:df:b3:35:7c:c7
                Exponent: 65537 (0x10001)
        X509v3 extensions:
            X509v3 Basic Constraints: 
                CA:FALSE
            Netscape Comment: 
                OpenSSL Generated Certificate
            X509v3 Subject Key Identifier: 
                FD:53:E6:4B:E3:5B:CF:4E:DF:62:4D:05:0C:48:30:97:32:C2:9A:C2
            X509v3 Authority Key Identifier: 
                keyid:33:C7:B9:6D:99:6B:59:D9:21:31:5C:38:11:DE:79:A4:8C:46:E8:6D

    Signature Algorithm: sha256WithRSAEncryption
         09:38:2a:25:f0:0d:3c:fa:5c:d9:94:69:9b:37:0a:7f:66:6d:
         3c:97:90:1a:f5:7c:fd:3c:01:51:e1:46:6c:4d:ff:9e:3d:b7:
         8f:57:21:fc:70:50:b6:89:69:87:1c:20:f8:87:f2:ba:1a:86:
         a3:37:11:85:63:66:14:39:5b:68:15:64:79:a0:ef:47:aa:3e:
         94:a8:d7:0f:16:89:d1:6b:73:e2:97:df:33:c8:01:f9:77:9a:
         f6:c1:2e:61:86:5c:11:64:af:01:47:21:82:a6:61:ee:c0:75:
         e6:c0:c3:55:26:35:fc:6a:e4:a0:5e:e2:e9:75:84:86:54:05:
         ab:70:16:99:5f:88:bf:2c:bc:5e:b5:4f:7c:af:dc:c2:8a:ea:
         5e:6e:6e:85:26:44:b9:2a:87:cb:a9:23:ec:84:f5:ea:e6:9b:
         33:6e:e5:60:1c:6e:2f:cc:e1:81:b2:b6:69:07:4d:39:0f:39:
         7b:f0:b3:ef:13:96:00:9e:fc:7e:80:4b:ec:8a:9a:8e:c6:9b:
         20:e5:10:b2:a9:36:4f:a1:e8:c9:c0:3f:e1:fe:92:a8:44:f0:
         7b:ba:e8:f6:dc:59:48:80:62:69:3d:82:d0:2a:4e:c0:20:1e:
         3f:4e:9d:ef:66:ad:0c:15:df:3e:68:83:e8:eb:24:f9:eb:70:
         27:06:17:70
-----BEGIN CERTIFICATE-----
MIIDRjCCAi6gAwIBAgICEAEwDQYJKoZIhvcNAQELBQAwgYUxCzAJBgNVBAYTAkNO
MQ4wDAYDVQQIDAVIdWJlaTEOMAwGA1UEBwwFV3VoYW4xDTALBgNVBAoMBEhVU1Qx
DDAKBgNVBAsMA0NTRTETMBEGA1UEAwwKemhhbmd6ZXhpbjEkMCIGCSqGSIb3DQEJ
ARYVZnJhZ3JhbmNlQGh1c3QuZWR1LmNuMB4XDTIxMDUyNzAzNTgxMFoXDTIyMDUy
NzAzNTgxMFowTTELMAkGA1UEBhMCQ04xDjAMBgNVBAgMBUh1YmVpMQ0wCwYDVQQK
DARIVVNUMQwwCgYDVQQLDANDU0UxETAPBgNVBAMMCGNsaWVudF8xMIGfMA0GCSqG
SIb3DQEBAQUAA4GNADCBiQKBgQCiICdyGuSK43oqhHCqfPNs1O2M1KFgZvbW6Q6q
tpVCDDmXCY+q59k6GlRQlDJEBGhquy2YkAEH1mobB9D9wU5Tp+ZsTqJs4GYKTYOM
UtzedTAYJMWw91Wrtg1Huyi5cEmybuyiXk/onWG2bjHsNiQ1xXkgqcwWWNB3Pxvf
szV8xwIDAQABo3sweTAJBgNVHRMEAjAAMCwGCWCGSAGG+EIBDQQfFh1PcGVuU1NM
IEdlbmVyYXRlZCBDZXJ0aWZpY2F0ZTAdBgNVHQ4EFgQU/VPmS+Nbz07fYk0FDEgw
lzLCmsIwHwYDVR0jBBgwFoAUM8e5bZlrWdkhMVw4Ed55pIxG6G0wDQYJKoZIhvcN
AQELBQADggEBAAk4KiXwDTz6XNmUaZs3Cn9mbTyXkBr1fP08AVHhRmxN/549t49X
IfxwULaJaYccIPiH8roahqM3EYVjZhQ5W2gVZHmg70eqPpSo1w8WidFrc+KX3zPI
Afl3mvbBLmGGXBFkrwFHIYKmYe7AdebAw1UmNfxq5KBe4ul1hIZUBatwFplfiL8s
vF61T3yv3MKK6l5uboUmRLkqh8upI+yE9ermmzNu5WAcbi/M4YGytmkHTTkPOXvw
s+8TlgCe/H6AS+yKmo7GmyDlELKpNk+h6MnAP+H+kqhE8Hu66PbcWUiAYmk9gtAq
TsAgHj9One9mrQwV3z5og+jrJPnrcCcGF3A=
-----END CERTIFICATE-----
