Certificate:
    Data:
        Version: 3 (0x2)
        Serial Number: 4096 (0x1000)
    Signature Algorithm: sha256WithRSAEncryption
        Issuer: C=CN, ST=Hubei, L=Wuhan, O=HUST, OU=CSE, CN=zhangzexin/emailAddress=fragrance@hust.edu.cn
        Validity
            Not Before: May 27 03:55:39 2021 GMT
            Not After : May 27 03:55:39 2022 GMT
        Subject: C=CN, ST=Hubei, O=HUST, OU=CSE, CN=zzxserver
        Subject Public Key Info:
            Public Key Algorithm: rsaEncryption
                Public-Key: (1024 bit)
                Modulus:
                    00:cc:38:9c:f9:5f:bb:13:19:a5:46:1b:c6:5e:80:
                    1e:47:c4:98:04:30:2f:24:25:d2:72:6a:44:a0:0e:
                    26:78:cd:78:2e:70:fe:08:4a:72:b3:78:be:a7:45:
                    df:68:59:c7:74:15:21:e4:eb:b8:75:ef:df:1c:d8:
                    f4:28:6d:d3:b9:b3:2c:4a:31:7a:e2:d4:68:3a:9a:
                    01:2b:65:2e:fe:45:b0:60:1f:0a:c8:49:b7:2e:31:
                    cc:44:49:2b:ba:d3:76:81:8b:2a:6a:91:2a:e7:03:
                    5b:38:cf:93:7e:27:45:25:30:c9:e0:0d:98:bc:11:
                    6d:ae:84:89:e3:80:1b:68:f5
                Exponent: 65537 (0x10001)
        X509v3 extensions:
            X509v3 Basic Constraints: 
                CA:FALSE
            Netscape Comment: 
                OpenSSL Generated Certificate
            X509v3 Subject Key Identifier: 
                C5:72:49:A3:AD:4D:64:72:22:76:D3:BE:32:F4:15:12:3F:A3:28:32
            X509v3 Authority Key Identifier: 
                keyid:33:C7:B9:6D:99:6B:59:D9:21:31:5C:38:11:DE:79:A4:8C:46:E8:6D

    Signature Algorithm: sha256WithRSAEncryption
         5b:10:a9:6c:5d:05:94:29:c1:b7:70:42:8c:77:f9:7f:0d:19:
         ec:f7:08:d1:59:d1:7f:05:84:55:89:26:af:e1:04:58:0d:d2:
         da:48:50:6d:96:24:c4:d0:c3:81:a1:88:db:87:22:33:b1:13:
         dc:8b:e8:2c:d9:f1:ee:4f:81:2c:a9:03:1c:e1:bc:7e:ed:e2:
         90:49:2f:a8:12:be:e4:1e:90:83:e1:c5:f6:46:08:6c:96:d5:
         58:91:95:40:f9:8b:7d:df:b1:68:bb:7c:85:99:0a:b1:a2:49:
         e1:9a:83:be:91:ac:53:48:bb:fa:83:6a:13:a7:10:75:99:cc:
         a2:18:95:4f:2f:a3:24:eb:36:90:35:db:91:19:7c:09:b3:4d:
         f9:4f:85:f0:ed:b9:1d:cf:4a:ab:25:e2:88:16:0c:b5:65:8c:
         42:e8:25:b6:3c:5b:7d:9f:27:c0:80:9a:38:88:d5:c4:fb:2b:
         d7:3e:35:70:8a:8c:cb:da:4c:fc:48:4d:d5:77:1d:40:da:22:
         c1:f5:5e:b0:92:15:fb:f0:08:1b:a5:5f:16:21:6b:56:8f:c0:
         1e:4f:dc:23:97:2d:f8:1f:4c:bd:79:47:99:40:fc:fa:47:6b:
         16:9e:d5:56:e2:70:f6:cf:f8:e1:73:71:f2:4d:ab:f2:74:d0:
         6f:17:04:46
-----BEGIN CERTIFICATE-----
MIIDRzCCAi+gAwIBAgICEAAwDQYJKoZIhvcNAQELBQAwgYUxCzAJBgNVBAYTAkNO
MQ4wDAYDVQQIDAVIdWJlaTEOMAwGA1UEBwwFV3VoYW4xDTALBgNVBAoMBEhVU1Qx
DDAKBgNVBAsMA0NTRTETMBEGA1UEAwwKemhhbmd6ZXhpbjEkMCIGCSqGSIb3DQEJ
ARYVZnJhZ3JhbmNlQGh1c3QuZWR1LmNuMB4XDTIxMDUyNzAzNTUzOVoXDTIyMDUy
NzAzNTUzOVowTjELMAkGA1UEBhMCQ04xDjAMBgNVBAgMBUh1YmVpMQ0wCwYDVQQK
DARIVVNUMQwwCgYDVQQLDANDU0UxEjAQBgNVBAMMCXp6eHNlcnZlcjCBnzANBgkq
hkiG9w0BAQEFAAOBjQAwgYkCgYEAzDic+V+7ExmlRhvGXoAeR8SYBDAvJCXScmpE
oA4meM14LnD+CEpys3i+p0XfaFnHdBUh5Ou4de/fHNj0KG3TubMsSjF64tRoOpoB
K2Uu/kWwYB8KyEm3LjHMREkrutN2gYsqapEq5wNbOM+TfidFJTDJ4A2YvBFtroSJ
44AbaPUCAwEAAaN7MHkwCQYDVR0TBAIwADAsBglghkgBhvhCAQ0EHxYdT3BlblNT
TCBHZW5lcmF0ZWQgQ2VydGlmaWNhdGUwHQYDVR0OBBYEFMVySaOtTWRyInbTvjL0
FRI/oygyMB8GA1UdIwQYMBaAFDPHuW2Za1nZITFcOBHeeaSMRuhtMA0GCSqGSIb3
DQEBCwUAA4IBAQBbEKlsXQWUKcG3cEKMd/l/DRns9wjRWdF/BYRViSav4QRYDdLa
SFBtliTE0MOBoYjbhyIzsRPci+gs2fHuT4EsqQMc4bx+7eKQSS+oEr7kHpCD4cX2
RghsltVYkZVA+Yt937Fou3yFmQqxoknhmoO+kaxTSLv6g2oTpxB1mcyiGJVPL6Mk
6zaQNduRGXwJs035T4Xw7bkdz0qrJeKIFgy1ZYxC6CW2PFt9nyfAgJo4iNXE+yvX
PjVwiozL2kz8SE3Vdx1A2iLB9V6wkhX78AgbpV8WIWtWj8AeT9wjly34H0y9eUeZ
QPz6R2sWntVW4nD2z/jhc3HyTavydNBvFwRG
-----END CERTIFICATE-----
